target datalayout = "e-m:e-p270:32:32-p271:32:32-p272:64:64-i64:64-i128:128-f80:128-n8:16:32:64-S128"
target triple = "x86_64-pc-linux-gnu"

%struct.ArgoBRPBlockHeader = type { i32, i32, i32 }
%struct.AVFormatContext = type { ptr, ptr, ptr, ptr, ptr, i32, i32, ptr, i32, ptr, i32, ptr, ptr, i64, i64, i64, i32, i32, i32, i64, i64, ptr, i32, i32, ptr, i32, i32, i32, i32, ptr, i64, i32, i32, %struct.AVIOInterruptCB, i32, i32, i32, i32, i64, i32, i32, i32, i32, i32, i32, i32, i32, i32, i32, i32, i32, i64, i32, i32, i32, i32, i32, ptr, ptr, ptr, ptr, i32, ptr, ptr, ptr, ptr, i32, ptr, ptr, i64, ptr, ptr, ptr, i64 }
%struct.AVIOInterruptCB = type { ptr, ptr }
%struct.ArgoBRPDemuxContext = type { %struct.ArgoBRPFileHeader, [32 x %struct.ArgoBRPStreamHeader], %struct.anon }
%struct.ArgoBRPFileHeader = type { i32, i32, i32 }
%struct.ArgoBRPStreamHeader = type { i32, i32, i32, i32, i32, %union.anon }
%union.anon = type { %struct.ArgoASFFileHeader }
%struct.ArgoASFFileHeader = type { i32, i16, i16, i32, i32, [9 x i8] }
%struct.anon = type { i32, %struct.ArgoASFChunkHeader }
%struct.ArgoASFChunkHeader = type { i32, i32, i32, i16, i16, i32 }
%struct.AVStream = type { ptr, i32, i32, ptr, ptr, %struct.AVRational, i64, i64, i64, i32, i32, %struct.AVRational, ptr, %struct.AVRational, %struct.AVPacket, i32, %struct.AVRational, i32 }
%struct.AVPacket = type { ptr, i64, i64, ptr, i32, i32, i32, ptr, i32, i64, i64, ptr, ptr, %struct.AVRational }
%struct.AVRational = type { i32, i32 }
%struct.ArgoBVIDHeader = type { i32, i32, i32, i32 }

; Function Attrs: nounwind uwtable
define internal i32 @argo_brp_read_packet(ptr noundef %0, ptr noundef %1) #0 {
  %3 = alloca i32, align 4
  %4 = alloca ptr, align 8
  %5 = alloca ptr, align 8
  %6 = alloca ptr, align 8
  %7 = alloca %struct.ArgoBRPBlockHeader, align 4
  %8 = alloca ptr, align 8
  %9 = alloca ptr, align 8
  %10 = alloca [20 x i8], align 16
  %11 = alloca %struct.ArgoASFChunkHeader, align 4
  %12 = alloca i32, align 4
  %13 = alloca i32, align 4
  store ptr %0, ptr %4, align 8, !tbaa !14
  store ptr %1, ptr %5, align 8, !tbaa !96
  call void @llvm.lifetime.start.p0(i64 8, ptr %6) #6
  %14 = load ptr, ptr %4, align 8, !tbaa !14
  %15 = getelementptr inbounds nuw %struct.AVFormatContext, ptr %14, i32 0, i32 3
  %16 = load ptr, ptr %15, align 8, !tbaa !32
  store ptr %16, ptr %6, align 8, !tbaa !33
  call void @llvm.lifetime.start.p0(i64 12, ptr %7) #6
  call void @llvm.lifetime.start.p0(i64 8, ptr %8) #6
  call void @llvm.lifetime.start.p0(i64 8, ptr %9) #6
  call void @llvm.lifetime.start.p0(i64 20, ptr %10) #6
  call void @llvm.lifetime.start.p0(i64 20, ptr %11) #6
  call void @llvm.lifetime.start.p0(i64 4, ptr %12) #6
  %17 = load ptr, ptr %4, align 8, !tbaa !14
  %18 = getelementptr inbounds nuw %struct.AVFormatContext, ptr %17, i32 0, i32 4
  %19 = load ptr, ptr %18, align 8, !tbaa !16
  %20 = getelementptr inbounds [20 x i8], ptr %10, i64 0, i64 0
  %21 = call i32 @ffio_read_size(ptr noundef %19, ptr noundef %20, i32 noundef 12)
  store i32 %21, ptr %12, align 4, !tbaa !45
  %22 = load i32, ptr %12, align 4, !tbaa !45
  %23 = icmp slt i32 %22, 0
  br i1 %23, label %24, label %26

24:                                               ; preds = %2
  %25 = load i32, ptr %12, align 4, !tbaa !45
  store i32 %25, ptr %3, align 4
  store i32 1, ptr %13, align 4
  br label %217

26:                                               ; preds = %2
  %27 = getelementptr inbounds [20 x i8], ptr %10, i64 0, i64 0
  %28 = getelementptr inbounds i8, ptr %27, i64 0
  %29 = load i32, ptr %28, align 1, !tbaa !13
  %30 = getelementptr inbounds nuw %struct.ArgoBRPBlockHeader, ptr %7, i32 0, i32 0
  store i32 %29, ptr %30, align 4, !tbaa !89
  %31 = getelementptr inbounds [20 x i8], ptr %10, i64 0, i64 0
  %32 = getelementptr inbounds i8, ptr %31, i64 4
  %33 = load i32, ptr %32, align 1, !tbaa !13
  %34 = getelementptr inbounds nuw %struct.ArgoBRPBlockHeader, ptr %7, i32 0, i32 1
  store i32 %33, ptr %34, align 4, !tbaa !91
  %35 = getelementptr inbounds [20 x i8], ptr %10, i64 0, i64 0
  %36 = getelementptr inbounds i8, ptr %35, i64 8
  %37 = load i32, ptr %36, align 1, !tbaa !13
  %38 = getelementptr inbounds nuw %struct.ArgoBRPBlockHeader, ptr %7, i32 0, i32 2
  store i32 %37, ptr %38, align 4, !tbaa !92
  %39 = getelementptr inbounds nuw %struct.ArgoBRPBlockHeader, ptr %7, i32 0, i32 0
  %40 = load i32, ptr %39, align 4, !tbaa !89
  %41 = icmp eq i32 %40, -1
  br i1 %41, label %42, label %43

42:                                               ; preds = %26
  store i32 -541478725, ptr %3, align 4
  store i32 1, ptr %13, align 4
  br label %217

43:                                               ; preds = %26
  %44 = getelementptr inbounds nuw %struct.ArgoBRPBlockHeader, ptr %7, i32 0, i32 0
  %45 = load i32, ptr %44, align 4, !tbaa !89
  %46 = icmp slt i32 %45, -1
  br i1 %46, label %54, label %47

47:                                               ; preds = %43
  %48 = getelementptr inbounds nuw %struct.ArgoBRPBlockHeader, ptr %7, i32 0, i32 0
  %49 = load i32, ptr %48, align 4, !tbaa !89
  %50 = load ptr, ptr %4, align 8, !tbaa !14
  %51 = getelementptr inbounds nuw %struct.AVFormatContext, ptr %50, i32 0, i32 6
  %52 = load i32, ptr %51, align 4, !tbaa !98
  %53 = icmp uge i32 %49, %52
  br i1 %53, label %54, label %55

54:                                               ; preds = %47, %43
  store i32 -1094995529, ptr %3, align 4
  store i32 1, ptr %13, align 4
  br label %217

55:                                               ; preds = %47
  %56 = load ptr, ptr %4, align 8, !tbaa !14
  %57 = getelementptr inbounds nuw %struct.AVFormatContext, ptr %56, i32 0, i32 7
  %58 = load ptr, ptr %57, align 8, !tbaa !88
  %59 = getelementptr inbounds nuw %struct.ArgoBRPBlockHeader, ptr %7, i32 0, i32 0
  %60 = load i32, ptr %59, align 4, !tbaa !89
  %61 = sext i32 %60 to i64
  %62 = getelementptr inbounds ptr, ptr %58, i64 %61
  %63 = load ptr, ptr %62, align 8, !tbaa !48
  store ptr %63, ptr %9, align 8, !tbaa !48
  %64 = load ptr, ptr %6, align 8, !tbaa !33
  %65 = getelementptr inbounds nuw %struct.ArgoBRPDemuxContext, ptr %64, i32 0, i32 1
  %66 = getelementptr inbounds [32 x %struct.ArgoBRPStreamHeader], ptr %65, i64 0, i64 0
  %67 = getelementptr inbounds nuw %struct.ArgoBRPBlockHeader, ptr %7, i32 0, i32 0
  %68 = load i32, ptr %67, align 4, !tbaa !89
  %69 = sext i32 %68 to i64
  %70 = getelementptr inbounds %struct.ArgoBRPStreamHeader, ptr %66, i64 %69
  store ptr %70, ptr %8, align 8, !tbaa !46
  %71 = getelementptr inbounds nuw %struct.ArgoBRPBlockHeader, ptr %7, i32 0, i32 0
  %72 = load i32, ptr %71, align 4, !tbaa !89
  %73 = load ptr, ptr %6, align 8, !tbaa !33
  %74 = getelementptr inbounds nuw %struct.ArgoBRPDemuxContext, ptr %73, i32 0, i32 2
  %75 = getelementptr inbounds nuw %struct.anon, ptr %74, i32 0, i32 0
  %76 = load i32, ptr %75, align 4, !tbaa !44
  %77 = icmp eq i32 %72, %76
  br i1 %77, label %78, label %139

78:                                               ; preds = %55
  %79 = getelementptr inbounds nuw %struct.ArgoBRPBlockHeader, ptr %7, i32 0, i32 2
  %80 = load i32, ptr %79, align 4, !tbaa !92
  %81 = icmp ult i32 %80, 20
  br i1 %81, label %82, label %83

82:                                               ; preds = %78
  store i32 -1094995529, ptr %3, align 4
  store i32 1, ptr %13, align 4
  br label %217

83:                                               ; preds = %78
  %84 = load ptr, ptr %4, align 8, !tbaa !14
  %85 = getelementptr inbounds nuw %struct.AVFormatContext, ptr %84, i32 0, i32 4
  %86 = load ptr, ptr %85, align 8, !tbaa !16
  %87 = getelementptr inbounds [20 x i8], ptr %10, i64 0, i64 0
  %88 = call i32 @ffio_read_size(ptr noundef %86, ptr noundef %87, i32 noundef 20)
  store i32 %88, ptr %12, align 4, !tbaa !45
  %89 = load i32, ptr %12, align 4, !tbaa !45
  %90 = icmp slt i32 %89, 0
  br i1 %90, label %91, label %93

91:                                               ; preds = %83
  %92 = load i32, ptr %12, align 4, !tbaa !45
  store i32 %92, ptr %3, align 4
  store i32 1, ptr %13, align 4
  br label %217

93:                                               ; preds = %83
  %94 = getelementptr inbounds [20 x i8], ptr %10, i64 0, i64 0
  call void @ff_argo_asf_parse_chunk_header(ptr noundef %11, ptr noundef %94)
  %95 = getelementptr inbounds nuw %struct.ArgoASFChunkHeader, ptr %11, i32 0, i32 3
  %96 = load i16, ptr %95, align 4, !tbaa !99
  %97 = zext i16 %96 to i32
  %98 = load ptr, ptr %6, align 8, !tbaa !33
  %99 = getelementptr inbounds nuw %struct.ArgoBRPDemuxContext, ptr %98, i32 0, i32 2
  %100 = getelementptr inbounds nuw %struct.anon, ptr %99, i32 0, i32 1
  %101 = getelementptr inbounds nuw %struct.ArgoASFChunkHeader, ptr %100, i32 0, i32 3
  %102 = load i16, ptr %101, align 4, !tbaa !100
  %103 = zext i16 %102 to i32
  %104 = icmp ne i32 %97, %103
  br i1 %104, label %134, label %105

105:                                              ; preds = %93
  %106 = getelementptr inbounds nuw %struct.ArgoASFChunkHeader, ptr %11, i32 0, i32 5
  %107 = load i32, ptr %106, align 4, !tbaa !101
  %108 = load ptr, ptr %6, align 8, !tbaa !33
  %109 = getelementptr inbounds nuw %struct.ArgoBRPDemuxContext, ptr %108, i32 0, i32 2
  %110 = getelementptr inbounds nuw %struct.anon, ptr %109, i32 0, i32 1
  %111 = getelementptr inbounds nuw %struct.ArgoASFChunkHeader, ptr %110, i32 0, i32 5
  %112 = load i32, ptr %111, align 4, !tbaa !102
  %113 = icmp ne i32 %107, %112
  br i1 %113, label %134, label %114

114:                                              ; preds = %105
  %115 = getelementptr inbounds nuw %struct.ArgoASFChunkHeader, ptr %11, i32 0, i32 2
  %116 = load i32, ptr %115, align 4, !tbaa !103
  %117 = load ptr, ptr %6, align 8, !tbaa !33
  %118 = getelementptr inbounds nuw %struct.ArgoBRPDemuxContext, ptr %117, i32 0, i32 2
  %119 = getelementptr inbounds nuw %struct.anon, ptr %118, i32 0, i32 1
  %120 = getelementptr inbounds nuw %struct.ArgoASFChunkHeader, ptr %119, i32 0, i32 2
  %121 = load i32, ptr %120, align 4, !tbaa !104
  %122 = icmp ne i32 %116, %121
  br i1 %122, label %134, label %123

123:                                              ; preds = %114
  %124 = getelementptr inbounds nuw %struct.ArgoASFChunkHeader, ptr %11, i32 0, i32 4
  %125 = load i16, ptr %124, align 2, !tbaa !105
  %126 = zext i16 %125 to i32
  %127 = load ptr, ptr %6, align 8, !tbaa !33
  %128 = getelementptr inbounds nuw %struct.ArgoBRPDemuxContext, ptr %127, i32 0, i32 2
  %129 = getelementptr inbounds nuw %struct.anon, ptr %128, i32 0, i32 1
  %130 = getelementptr inbounds nuw %struct.ArgoASFChunkHeader, ptr %129, i32 0, i32 4
  %131 = load i16, ptr %130, align 2, !tbaa !106
  %132 = zext i16 %131 to i32
  %133 = icmp ne i32 %126, %132
  br i1 %133, label %134, label %135

134:                                              ; preds = %123, %114, %105, %93
  store i32 -1094995529, ptr %3, align 4
  store i32 1, ptr %13, align 4
  br label %217

135:                                              ; preds = %123
  %136 = getelementptr inbounds nuw %struct.ArgoBRPBlockHeader, ptr %7, i32 0, i32 2
  %137 = load i32, ptr %136, align 4, !tbaa !92
  %138 = sub i32 %137, 20
  store i32 %138, ptr %136, align 4, !tbaa !92
  br label %139

139:                                              ; preds = %135, %55
  %140 = load ptr, ptr %4, align 8, !tbaa !14
  %141 = getelementptr inbounds nuw %struct.AVFormatContext, ptr %140, i32 0, i32 4
  %142 = load ptr, ptr %141, align 8, !tbaa !16
  %143 = load ptr, ptr %5, align 8, !tbaa !96
  %144 = getelementptr inbounds nuw %struct.ArgoBRPBlockHeader, ptr %7, i32 0, i32 2
  %145 = load i32, ptr %144, align 4, !tbaa !92
  %146 = call i32 @av_get_packet(ptr noundef %142, ptr noundef %143, i32 noundef %145)
  store i32 %146, ptr %12, align 4, !tbaa !45
  %147 = icmp slt i32 %146, 0
  br i1 %147, label %148, label %150

148:                                              ; preds = %139
  %149 = load i32, ptr %12, align 4, !tbaa !45
  store i32 %149, ptr %3, align 4
  store i32 1, ptr %13, align 4
  br label %217

150:                                              ; preds = %139
  %151 = load i32, ptr %12, align 4, !tbaa !45
  %152 = getelementptr inbounds nuw %struct.ArgoBRPBlockHeader, ptr %7, i32 0, i32 2
  %153 = load i32, ptr %152, align 4, !tbaa !92
  %154 = icmp ne i32 %151, %153
  br i1 %154, label %155, label %156

155:                                              ; preds = %150
  store i32 -1094995529, ptr %3, align 4
  store i32 1, ptr %13, align 4
  br label %217

156:                                              ; preds = %150
  br label %157

157:                                              ; preds = %156
  %158 = getelementptr inbounds nuw %struct.ArgoBRPBlockHeader, ptr %7, i32 0, i32 0
  %159 = load i32, ptr %158, align 4, !tbaa !89
  %160 = load ptr, ptr %6, align 8, !tbaa !33
  %161 = getelementptr inbounds nuw %struct.ArgoBRPDemuxContext, ptr %160, i32 0, i32 2
  %162 = getelementptr inbounds nuw %struct.anon, ptr %161, i32 0, i32 0
  %163 = load i32, ptr %162, align 4, !tbaa !44
  %164 = icmp eq i32 %159, %163
  br i1 %164, label %165, label %183

165:                                              ; preds = %157
  %166 = getelementptr inbounds nuw %struct.ArgoASFChunkHeader, ptr %11, i32 0, i32 1
  %167 = load i32, ptr %166, align 4, !tbaa !107
  %168 = getelementptr inbounds nuw %struct.ArgoASFChunkHeader, ptr %11, i32 0, i32 0
  %169 = load i32, ptr %168, align 4, !tbaa !108
  %170 = mul i32 %167, %169
  %171 = zext i32 %170 to i64
  %172 = load ptr, ptr %5, align 8, !tbaa !96
  %173 = getelementptr inbounds nuw %struct.AVPacket, ptr %172, i32 0, i32 9
  store i64 %171, ptr %173, align 8, !tbaa !109
  %174 = getelementptr inbounds nuw %struct.ArgoBRPBlockHeader, ptr %7, i32 0, i32 1
  %175 = load i32, ptr %174, align 4, !tbaa !91
  %176 = zext i32 %175 to i64
  %177 = getelementptr inbounds nuw %struct.ArgoASFChunkHeader, ptr %11, i32 0, i32 3
  %178 = load i16, ptr %177, align 4, !tbaa !99
  %179 = zext i16 %178 to i64
  %180 = call i64 @av_rescale_rnd(i64 noundef %176, i64 noundef %179, i64 noundef 1000, i32 noundef 3) #8
  %181 = load ptr, ptr %5, align 8, !tbaa !96
  %182 = getelementptr inbounds nuw %struct.AVPacket, ptr %181, i32 0, i32 1
  store i64 %180, ptr %182, align 8, !tbaa !110
  br label %212

183:                                              ; preds = %157
  %184 = load ptr, ptr %8, align 8, !tbaa !46
  %185 = getelementptr inbounds nuw %struct.ArgoBRPStreamHeader, ptr %184, i32 0, i32 0
  %186 = load i32, ptr %185, align 4, !tbaa !50
  %187 = icmp eq i32 %186, 1145656898
  br i1 %187, label %188, label %205

188:                                              ; preds = %183
  %189 = load ptr, ptr %9, align 8, !tbaa !48
  %190 = getelementptr inbounds nuw %struct.AVStream, ptr %189, i32 0, i32 7
  %191 = load i64, ptr %190, align 8, !tbaa !56
  %192 = load ptr, ptr %8, align 8, !tbaa !46
  %193 = getelementptr inbounds nuw %struct.ArgoBRPStreamHeader, ptr %192, i32 0, i32 5
  %194 = getelementptr inbounds nuw %struct.ArgoBVIDHeader, ptr %193, i32 0, i32 0
  %195 = load i32, ptr %194, align 4, !tbaa !13
  %196 = zext i32 %195 to i64
  %197 = call i64 @av_rescale_rnd(i64 noundef 1, i64 noundef %191, i64 noundef %196, i32 noundef 3) #8
  %198 = load ptr, ptr %5, align 8, !tbaa !96
  %199 = getelementptr inbounds nuw %struct.AVPacket, ptr %198, i32 0, i32 9
  store i64 %197, ptr %199, align 8, !tbaa !109
  %200 = getelementptr inbounds nuw %struct.ArgoBRPBlockHeader, ptr %7, i32 0, i32 1
  %201 = load i32, ptr %200, align 4, !tbaa !91
  %202 = zext i32 %201 to i64
  %203 = load ptr, ptr %5, align 8, !tbaa !96
  %204 = getelementptr inbounds nuw %struct.AVPacket, ptr %203, i32 0, i32 1
  store i64 %202, ptr %204, align 8, !tbaa !110
  br label %211

205:                                              ; preds = %183
  %206 = getelementptr inbounds nuw %struct.ArgoBRPBlockHeader, ptr %7, i32 0, i32 1
  %207 = load i32, ptr %206, align 4, !tbaa !91
  %208 = zext i32 %207 to i64
  %209 = load ptr, ptr %5, align 8, !tbaa !96
  %210 = getelementptr inbounds nuw %struct.AVPacket, ptr %209, i32 0, i32 1
  store i64 %208, ptr %210, align 8, !tbaa !110
  br label %211

211:                                              ; preds = %205, %188
  br label %212

212:                                              ; preds = %211, %165
  %213 = getelementptr inbounds nuw %struct.ArgoBRPBlockHeader, ptr %7, i32 0, i32 0
  %214 = load i32, ptr %213, align 4, !tbaa !89
  %215 = load ptr, ptr %5, align 8, !tbaa !96
  %216 = getelementptr inbounds nuw %struct.AVPacket, ptr %215, i32 0, i32 5
  store i32 %214, ptr %216, align 4, !tbaa !111
  store i32 0, ptr %3, align 4
  store i32 1, ptr %13, align 4
  br label %217

217:                                              ; preds = %212, %155, %148, %134, %91, %82, %54, %42, %24
  call void @llvm.lifetime.end.p0(i64 4, ptr %12) #6
  call void @llvm.lifetime.end.p0(i64 20, ptr %11) #6
  call void @llvm.lifetime.end.p0(i64 20, ptr %10) #6
  call void @llvm.lifetime.end.p0(i64 8, ptr %9) #6
  call void @llvm.lifetime.end.p0(i64 8, ptr %8) #6
  call void @llvm.lifetime.end.p0(i64 12, ptr %7) #6
  call void @llvm.lifetime.end.p0(i64 8, ptr %6) #6
  %218 = load i32, ptr %3, align 4
  ret i32 %218
}