; Function Attrs: nounwind uwtable
define internal range(i32 -2147483648, 1) i32 @argo_brp_read_packet(ptr noundef readonly captures(none) %0, ptr noundef %1) #1 {
  %3 = alloca [20 x i8], align 16
  %4 = alloca %struct.ArgoASFChunkHeader, align 4
  %5 = getelementptr inbounds nuw i8, ptr %0, i64 24
  %6 = load ptr, ptr %5, align 8, !tbaa !27
  call void @llvm.lifetime.start.p0(i64 20, ptr nonnull %3) #7
  call void @llvm.lifetime.start.p0(i64 20, ptr nonnull %4) #7
  %7 = getelementptr inbounds nuw i8, ptr %0, i64 32
  %8 = load ptr, ptr %7, align 8, !tbaa !12
  %9 = call i32 @ffio_read_size(ptr noundef %8, ptr noundef nonnull %3, i32 noundef 12) #7
  %10 = icmp slt i32 %9, 0
  br i1 %10, label %99, label %11

11:                                               ; preds = %2
  %12 = load i32, ptr %3, align 16, !tbaa !11
  %13 = getelementptr inbounds nuw i8, ptr %3, i64 4
  %14 = load i32, ptr %13, align 4, !tbaa !11
  %15 = getelementptr inbounds nuw i8, ptr %3, i64 8
  %16 = load i32, ptr %15, align 8, !tbaa !11
  %17 = icmp eq i32 %12, -1
  br i1 %17, label %99, label %18

18:                                               ; preds = %11
  %19 = icmp slt i32 %12, -1
  br i1 %19, label %99, label %20

20:                                               ; preds = %18
  %21 = getelementptr inbounds nuw i8, ptr %0, i64 44
  %22 = load i32, ptr %21, align 4, !tbaa !77
  %.not = icmp ult i32 %12, %22
  br i1 %.not, label %23, label %99

23:                                               ; preds = %20
  %24 = getelementptr inbounds nuw i8, ptr %0, i64 48
  %25 = load ptr, ptr %24, align 8, !tbaa !71
  %26 = zext nneg i32 %12 to i64
  %27 = getelementptr inbounds nuw ptr, ptr %25, i64 %26
  %28 = load ptr, ptr %27, align 8, !tbaa !72
  %29 = getelementptr inbounds nuw i8, ptr %6, i64 12
  %30 = getelementptr inbounds nuw %struct.ArgoBRPStreamHeader, ptr %29, i64 %26
  %31 = getelementptr inbounds nuw i8, ptr %6, i64 1548
  %32 = load i32, ptr %31, align 4, !tbaa !36
  %33 = icmp eq i32 %12, %32
  br i1 %33, label %34, label %62

34:                                               ; preds = %23
  %35 = icmp ult i32 %16, 20
  br i1 %35, label %99, label %36

36:                                               ; preds = %34
  %37 = load ptr, ptr %7, align 8, !tbaa !12
  %38 = call i32 @ffio_read_size(ptr noundef %37, ptr noundef nonnull %3, i32 noundef 20) #7
  %39 = icmp slt i32 %38, 0
  br i1 %39, label %99, label %40

40:                                               ; preds = %36
  call void @ff_argo_asf_parse_chunk_header(ptr noundef nonnull %4, ptr noundef nonnull %3) #7
  %41 = getelementptr inbounds nuw i8, ptr %4, i64 12
  %42 = load i16, ptr %41, align 4, !tbaa !78
  %43 = getelementptr inbounds nuw i8, ptr %6, i64 1564
  %44 = load i16, ptr %43, align 4, !tbaa !79
  %.not46 = icmp eq i16 %42, %44
  br i1 %.not46, label %45, label %99

45:                                               ; preds = %40
  %46 = getelementptr inbounds nuw i8, ptr %4, i64 16
  %47 = load i32, ptr %46, align 4, !tbaa !80
  %48 = getelementptr inbounds nuw i8, ptr %6, i64 1568
  %49 = load i32, ptr %48, align 4, !tbaa !81
  %.not47 = icmp eq i32 %47, %49
  br i1 %.not47, label %50, label %99

50:                                               ; preds = %45
  %51 = getelementptr inbounds nuw i8, ptr %4, i64 8
  %52 = load i32, ptr %51, align 4, !tbaa !82
  %53 = getelementptr inbounds nuw i8, ptr %6, i64 1560
  %54 = load i32, ptr %53, align 4, !tbaa !83
  %.not48 = icmp eq i32 %52, %54
  br i1 %.not48, label %55, label %99

55:                                               ; preds = %50
  %56 = getelementptr inbounds nuw i8, ptr %4, i64 14
  %57 = load i16, ptr %56, align 2, !tbaa !84
  %58 = getelementptr inbounds nuw i8, ptr %6, i64 1566
  %59 = load i16, ptr %58, align 2, !tbaa !85
  %.not49 = icmp eq i16 %57, %59
  br i1 %.not49, label %60, label %99

60:                                               ; preds = %55
  %61 = add i32 %16, -20
  br label %62

62:                                               ; preds = %60, %23
  %.sroa.15.0 = phi i32 [ %61, %60 ], [ %16, %23 ]
  %63 = load ptr, ptr %7, align 8, !tbaa !12
  %64 = call i32 @av_get_packet(ptr noundef %63, ptr noundef %1, i32 noundef %.sroa.15.0) #7
  %65 = icmp slt i32 %64, 0
  br i1 %65, label %99, label %66

66:                                               ; preds = %62
  %.not50 = icmp eq i32 %64, %.sroa.15.0
  br i1 %.not50, label %67, label %99

67:                                               ; preds = %66
  %68 = load i32, ptr %31, align 4, !tbaa !36
  %69 = icmp eq i32 %12, %68
  br i1 %69, label %70, label %82

70:                                               ; preds = %67
  %71 = getelementptr inbounds nuw i8, ptr %4, i64 4
  %72 = load i32, ptr %71, align 4, !tbaa !86
  %73 = load i32, ptr %4, align 4, !tbaa !87
  %74 = mul i32 %73, %72
  %75 = zext i32 %74 to i64
  %76 = getelementptr inbounds nuw i8, ptr %1, i64 64
  store i64 %75, ptr %76, align 8, !tbaa !88
  %77 = zext i32 %14 to i64
  %78 = getelementptr inbounds nuw i8, ptr %4, i64 12
  %79 = load i16, ptr %78, align 4, !tbaa !78
  %80 = zext i16 %79 to i64
  %81 = call i64 @av_rescale_rnd(i64 noundef %77, i64 noundef %80, i64 noundef 1000, i32 noundef 3) #9
  br label %96

82:                                               ; preds = %67
  %83 = load i32, ptr %30, align 4, !tbaa !37
  %84 = icmp eq i32 %83, 1145656898
  br i1 %84, label %85, label %94

85:                                               ; preds = %82
  %86 = getelementptr inbounds nuw i8, ptr %28, i64 48
  %87 = load i64, ptr %86, align 8, !tbaa !43
  %88 = getelementptr inbounds nuw i8, ptr %30, i64 20
  %89 = load i32, ptr %88, align 4, !tbaa !11
  %90 = zext i32 %89 to i64
  %91 = call i64 @av_rescale_rnd(i64 noundef 1, i64 noundef %87, i64 noundef %90, i32 noundef 3) #9
  %92 = getelementptr inbounds nuw i8, ptr %1, i64 64
  store i64 %91, ptr %92, align 8, !tbaa !88
  %93 = zext i32 %14 to i64
  br label %96

94:                                               ; preds = %82
  %95 = zext i32 %14 to i64
  br label %96

96:                                               ; preds = %85, %94, %70
  %.sink = phi i64 [ %93, %85 ], [ %95, %94 ], [ %81, %70 ]
  %97 = getelementptr inbounds nuw i8, ptr %1, i64 8
  store i64 %.sink, ptr %97, align 8, !tbaa !89
  %98 = getelementptr inbounds nuw i8, ptr %1, i64 36
  store i32 %12, ptr %98, align 4, !tbaa !90
  br label %99

99:                                               ; preds = %66, %62, %40, %45, %50, %55, %36, %34, %18, %20, %11, %2, %96
  %.0 = phi i32 [ 0, %96 ], [ %9, %2 ], [ -541478725, %11 ], [ -1094995529, %20 ], [ -1094995529, %18 ], [ -1094995529, %34 ], [ %38, %36 ], [ -1094995529, %55 ], [ -1094995529, %50 ], [ -1094995529, %45 ], [ -1094995529, %40 ], [ %64, %62 ], [ -1094995529, %66 ]
  call void @llvm.lifetime.end.p0(i64 20, ptr nonnull %4) #7
  call void @llvm.lifetime.end.p0(i64 20, ptr nonnull %3) #7
  ret i32 %.0
}